target datalayout = "e-m:e-p270:32:32-p271:32:32-p272:64:64-i64:64-i128:128-f80:128-n8:16:32:64-S128"
target triple = "x86_64-pc-linux-gnu"

%"struct.gmx::EnumerationArray" = type { [3 x ptr] }
%"class.gmx::AnalysisDataPlotSettings" = type { ptr, i32, i32 }
%"class.gmx::EnumOption" = type <{ %"class.gmx::OptionTemplate", ptr, i32, [4 x i8] }>
%"class.gmx::OptionTemplate" = type { %"class.gmx::AbstractOption", ptr, ptr, ptr, ptr, ptr }
%"class.gmx::AbstractOption" = type { ptr, i32, i32, ptr, ptr, %"class.gmx::FlagsTemplate", ptr }
%"class.gmx::FlagsTemplate" = type { i64 }

@.str = private unnamed_addr constant [4 x i8] c"xvg\00", align 1
@_ZN3gmxL16c_xvgFormatNamesE = internal constant %"struct.gmx::EnumerationArray" { [3 x ptr] [ptr @.str.4, ptr @.str.5, ptr @.str.6] }, align 8
@.str.1 = private unnamed_addr constant [16 x i8] c"Plot formatting\00", align 1
@_ZTIN3gmx10OptionInfoE = external constant ptr
@_ZTIN3gmx14EnumOptionInfoE = linkonce_odr constant { ptr, ptr, ptr } { ptr getelementptr inbounds (ptr, ptr @_ZTVN10__cxxabiv120__si_class_type_infoE, i64 2), ptr @_ZTSN3gmx14EnumOptionInfoE, ptr @_ZTIN3gmx10OptionInfoE }, comdat, align 8
@_ZTVN3gmx14AbstractOptionE = linkonce_odr unnamed_addr constant { [5 x ptr] } { [5 x ptr] [ptr null, ptr @_ZTIN3gmx14AbstractOptionE, ptr @_ZN3gmx14AbstractOptionD2Ev, ptr @_ZN3gmx14AbstractOptionD0Ev, ptr @__cxa_pure_virtual] }, comdat, align 8

; Function Attrs: mustprogress nounwind uwtable
define linkonce_odr void @_ZN3gmx13FlagsTemplateINS_10OptionFlagEEC2Ev(ptr noundef nonnull align 8 dereferenceable(8) %0) unnamed_addr #0 comdat align 2 {
  %2 = alloca ptr, align 8
  store ptr %0, ptr %2, align 8, !tbaa !102
  %3 = load ptr, ptr %2, align 8
  %4 = getelementptr inbounds nuw %"class.gmx::FlagsTemplate", ptr %3, i32 0, i32 0
  store i64 0, ptr %4, align 8, !tbaa !104
  ret void
}

; Function Attrs: mustprogress uwtable
define linkonce_odr void @_ZN3gmx14AbstractOptionC2EPKc(ptr noundef nonnull align 8 dereferenceable(48) %0, ptr noundef %1) unnamed_addr #1 comdat align 2 {
  %3 = alloca ptr, align 8
  %4 = alloca ptr, align 8
  store ptr %0, ptr %3, align 8, !tbaa !88
  store ptr %1, ptr %4, align 8, !tbaa !31
  %5 = load ptr, ptr %3, align 8
  store ptr getelementptr inbounds inrange(-16, 24) ({ [5 x ptr] }, ptr @_ZTVN3gmx14AbstractOptionE, i32 0, i32 0, i32 2), ptr %5, align 8, !tbaa !52
  %6 = getelementptr inbounds nuw %"class.gmx::AbstractOption", ptr %5, i32 0, i32 1
  store i32 1, ptr %6, align 8, !tbaa !97
  %7 = getelementptr inbounds nuw %"class.gmx::AbstractOption", ptr %5, i32 0, i32 2
  store i32 1, ptr %7, align 4, !tbaa !98
  %8 = getelementptr inbounds nuw %"class.gmx::AbstractOption", ptr %5, i32 0, i32 3
  %9 = load ptr, ptr %4, align 8, !tbaa !31
  store ptr %9, ptr %8, align 8, !tbaa !99
  %10 = getelementptr inbounds nuw %"class.gmx::AbstractOption", ptr %5, i32 0, i32 4
  store ptr null, ptr %10, align 8, !tbaa !100
  %11 = getelementptr inbounds nuw %"class.gmx::AbstractOption", ptr %5, i32 0, i32 5
  call void @_ZN3gmx13FlagsTemplateINS_10OptionFlagEEC2Ev(ptr noundef nonnull align 8 dereferenceable(8) %11)
  %12 = getelementptr inbounds nuw %"class.gmx::AbstractOption", ptr %5, i32 0, i32 6
  store ptr null, ptr %12, align 8, !tbaa !101
  ret void
}

; Function Attrs: mustprogress nounwind uwtable
define linkonce_odr noundef ptr @_ZN3gmx10OptionInfo6toTypeINS_14EnumOptionInfoEEEPT_v(ptr noundef nonnull align 8 dereferenceable(16) %0) #0 comdat align 2 {
  %2 = alloca ptr, align 8
  store ptr %0, ptr %2, align 8, !tbaa !69
  %3 = load ptr, ptr %2, align 8
  %4 = icmp eq ptr %3, null
  br i1 %4, label %7, label %5

5:                                                ; preds = %1
  %6 = call ptr @__dynamic_cast(ptr %3, ptr @_ZTIN3gmx10OptionInfoE, ptr @_ZTIN3gmx14EnumOptionInfoE, i64 0) #21
  br label %8

7:                                                ; preds = %1
  br label %8

8:                                                ; preds = %7, %5
  %9 = phi ptr [ %6, %5 ], [ null, %7 ]
  ret ptr %9
}

; Function Attrs: mustprogress nounwind uwtable
define linkonce_odr void @_ZN3gmx14AbstractOption14setDescriptionEPKc(ptr noundef nonnull align 8 dereferenceable(48) %0, ptr noundef %1) #0 comdat align 2 {
  %3 = alloca ptr, align 8
  %4 = alloca ptr, align 8
  store ptr %0, ptr %3, align 8, !tbaa !88
  store ptr %1, ptr %4, align 8, !tbaa !31
  %5 = load ptr, ptr %3, align 8
  %6 = load ptr, ptr %4, align 8, !tbaa !31
  %7 = getelementptr inbounds nuw %"class.gmx::AbstractOption", ptr %5, i32 0, i32 4
  store ptr %6, ptr %7, align 8, !tbaa !100
  ret void
}

; Function Attrs: mustprogress nounwind uwtable
define linkonce_odr noundef nonnull align 8 dereferenceable(100) ptr @_ZN3gmx14OptionTemplateI9XvgFormatNS_10EnumOptionIS1_EEE2meEv(ptr noundef nonnull align 8 dereferenceable(88) %0) #0 comdat align 2 {
  %2 = alloca ptr, align 8
  store ptr %0, ptr %2, align 8, !tbaa !84
  %3 = load ptr, ptr %2, align 8
  ret ptr %3
}

; Function Attrs: mustprogress nounwind uwtable
define linkonce_odr noundef i64 @_ZNK3gmx16EnumerationArrayI9XvgFormatPKcLS1_3EE4sizeEv(ptr noundef nonnull align 8 dereferenceable(24) %0) #0 comdat align 2 {
  %2 = alloca ptr, align 8
  store ptr %0, ptr %2, align 8, !tbaa !82
  ret i64 3
}

; Function Attrs: mustprogress nounwind uwtable
define linkonce_odr noundef ptr @_ZNK3gmx16EnumerationArrayI9XvgFormatPKcLS1_3EE4dataEv(ptr noundef nonnull align 8 dereferenceable(24) %0) #0 comdat align 2 {
  %2 = alloca ptr, align 8
  store ptr %0, ptr %2, align 8, !tbaa !82
  %3 = load ptr, ptr %2, align 8
  %4 = getelementptr inbounds nuw %"struct.gmx::EnumerationArray", ptr %3, i32 0, i32 0
  %5 = getelementptr inbounds [3 x ptr], ptr %4, i64 0, i64 0
  ret ptr %5
}

; Function Attrs: mustprogress uwtable
define linkonce_odr void @_ZN3gmx14OptionTemplateI9XvgFormatNS_10EnumOptionIS1_EEEC2EPKc(ptr noundef nonnull align 8 dereferenceable(88) %0, ptr noundef %1) unnamed_addr #1 comdat align 2 {
  %3 = alloca ptr, align 8
  %4 = alloca ptr, align 8
  store ptr %0, ptr %3, align 8, !tbaa !84
  store ptr %1, ptr %4, align 8, !tbaa !31
  %5 = load ptr, ptr %3, align 8
  %6 = load ptr, ptr %4, align 8, !tbaa !31
  call void @_ZN3gmx14AbstractOptionC2EPKc(ptr noundef nonnull align 8 dereferenceable(48) %5, ptr noundef %6)
  store ptr getelementptr inbounds inrange(-16, 24) ({ [5 x ptr] }, ptr @_ZTVN3gmx14OptionTemplateI9XvgFormatNS_10EnumOptionIS1_EEEE, i32 0, i32 0, i32 2), ptr %5, align 8, !tbaa !52
  %7 = getelementptr inbounds nuw %"class.gmx::OptionTemplate", ptr %5, i32 0, i32 1
  store ptr null, ptr %7, align 8, !tbaa !90
  %8 = getelementptr inbounds nuw %"class.gmx::OptionTemplate", ptr %5, i32 0, i32 2
  store ptr null, ptr %8, align 8, !tbaa !91
  %9 = getelementptr inbounds nuw %"class.gmx::OptionTemplate", ptr %5, i32 0, i32 3
  store ptr null, ptr %9, align 8, !tbaa !87
  %10 = getelementptr inbounds nuw %"class.gmx::OptionTemplate", ptr %5, i32 0, i32 4
  store ptr null, ptr %10, align 8, !tbaa !92
  %11 = getelementptr inbounds nuw %"class.gmx::OptionTemplate", ptr %5, i32 0, i32 5
  store ptr null, ptr %11, align 8, !tbaa !93
  ret void
}

; Function Attrs: mustprogress nounwind uwtable
define linkonce_odr void @_ZN3gmx14AbstractOptionD2Ev(ptr noundef nonnull align 8 dereferenceable(48) %0) unnamed_addr #0 comdat align 2 {
  %2 = alloca ptr, align 8
  store ptr %0, ptr %2, align 8, !tbaa !88
  ret void
}

; Function Attrs: mustprogress uwtable
define linkonce_odr noundef ptr @_ZN3gmx17IOptionsContainer9addOptionINS_10EnumOptionI9XvgFormatEEEEPNT_8InfoTypeERKS5_(ptr noundef nonnull align 8 dereferenceable(8) %0, ptr noundef nonnull align 8 dereferenceable(100) %1) #1 comdat align 2 {
  %3 = alloca ptr, align 8
  %4 = alloca ptr, align 8
  %5 = alloca ptr, align 8
  store ptr %0, ptr %3, align 8, !tbaa !65
  store ptr %1, ptr %4, align 8, !tbaa !67
  %6 = load ptr, ptr %3, align 8
  call void @llvm.lifetime.start.p0(i64 8, ptr %5) #21
  %7 = load ptr, ptr %4, align 8, !tbaa !67
  %8 = load ptr, ptr %6, align 8, !tbaa !52
  %9 = getelementptr inbounds ptr, ptr %8, i64 3
  %10 = load ptr, ptr %9, align 8
  %11 = call noundef ptr %10(ptr noundef nonnull align 8 dereferenceable(8) %6, ptr noundef nonnull align 8 dereferenceable(48) %7)
  store ptr %11, ptr %5, align 8, !tbaa !69
  %12 = load ptr, ptr %5, align 8, !tbaa !69
  %13 = call noundef ptr @_ZN3gmx10OptionInfo6toTypeINS_14EnumOptionInfoEEEPT_v(ptr noundef nonnull align 8 dereferenceable(16) %12)
  call void @llvm.lifetime.end.p0(i64 8, ptr %5) #21
  ret ptr %13
}

; Function Attrs: mustprogress uwtable
define linkonce_odr noundef nonnull align 8 dereferenceable(100) ptr @_ZN3gmx14OptionTemplateI9XvgFormatNS_10EnumOptionIS1_EEE11descriptionEPKc(ptr noundef nonnull align 8 dereferenceable(88) %0, ptr noundef %1) #1 comdat align 2 {
  %3 = alloca ptr, align 8
  %4 = alloca ptr, align 8
  store ptr %0, ptr %3, align 8, !tbaa !84
  store ptr %1, ptr %4, align 8, !tbaa !31
  %5 = load ptr, ptr %3, align 8
  %6 = load ptr, ptr %4, align 8, !tbaa !31
  call void @_ZN3gmx14AbstractOption14setDescriptionEPKc(ptr noundef nonnull align 8 dereferenceable(48) %5, ptr noundef %6)
  %7 = call noundef nonnull align 8 dereferenceable(100) ptr @_ZN3gmx14OptionTemplateI9XvgFormatNS_10EnumOptionIS1_EEE2meEv(ptr noundef nonnull align 8 dereferenceable(88) %5)
  ret ptr %7
}

; Function Attrs: mustprogress nounwind uwtable
define linkonce_odr noundef nonnull align 8 dereferenceable(100) ptr @_ZN3gmx14OptionTemplateI9XvgFormatNS_10EnumOptionIS1_EEE5storeEPS1_(ptr noundef nonnull align 8 dereferenceable(88) %0, ptr noundef %1) #0 comdat align 2 {
  %3 = alloca ptr, align 8
  %4 = alloca ptr, align 8
  store ptr %0, ptr %3, align 8, !tbaa !84
  store ptr %1, ptr %4, align 8, !tbaa !86
  %5 = load ptr, ptr %3, align 8
  %6 = load ptr, ptr %4, align 8, !tbaa !86
  %7 = getelementptr inbounds nuw %"class.gmx::OptionTemplate", ptr %5, i32 0, i32 3
  store ptr %6, ptr %7, align 8, !tbaa !87
  %8 = call noundef nonnull align 8 dereferenceable(100) ptr @_ZN3gmx14OptionTemplateI9XvgFormatNS_10EnumOptionIS1_EEE2meEv(ptr noundef nonnull align 8 dereferenceable(88) %5)
  ret ptr %8
}

; Function Attrs: mustprogress uwtable
define linkonce_odr noundef nonnull align 8 dereferenceable(100) ptr @_ZN3gmx10EnumOptionI9XvgFormatE9enumValueERKNS_16EnumerationArrayIS1_PKcLS1_3EEE(ptr noundef nonnull align 8 dereferenceable(100) %0, ptr noundef nonnull align 8 dereferenceable(24) %1) #1 comdat align 2 {
  %3 = alloca ptr, align 8
  %4 = alloca ptr, align 8
  store ptr %0, ptr %3, align 8, !tbaa !67
  store ptr %1, ptr %4, align 8, !tbaa !82
  %5 = load ptr, ptr %3, align 8
  %6 = load ptr, ptr %4, align 8, !tbaa !82
  %7 = call noundef ptr @_ZNK3gmx16EnumerationArrayI9XvgFormatPKcLS1_3EE4dataEv(ptr noundef nonnull align 8 dereferenceable(24) %6)
  %8 = getelementptr inbounds nuw %"class.gmx::EnumOption", ptr %5, i32 0, i32 1
  store ptr %7, ptr %8, align 8, !tbaa !71
  %9 = load ptr, ptr %4, align 8, !tbaa !82
  %10 = call noundef i64 @_ZNK3gmx16EnumerationArrayI9XvgFormatPKcLS1_3EE4sizeEv(ptr noundef nonnull align 8 dereferenceable(24) %9)
  %11 = trunc i64 %10 to i32
  %12 = getelementptr inbounds nuw %"class.gmx::EnumOption", ptr %5, i32 0, i32 2
  store i32 %11, ptr %12, align 8, !tbaa !81
  %13 = call noundef nonnull align 8 dereferenceable(100) ptr @_ZN3gmx14OptionTemplateI9XvgFormatNS_10EnumOptionIS1_EEE2meEv(ptr noundef nonnull align 8 dereferenceable(88) %5)
  ret ptr %13
}

; Function Attrs: mustprogress uwtable
define linkonce_odr void @_ZN3gmx10EnumOptionI9XvgFormatEC2EPKc(ptr noundef nonnull align 8 dereferenceable(100) %0, ptr noundef %1) unnamed_addr #1 comdat align 2 {
  %3 = alloca ptr, align 8
  %4 = alloca ptr, align 8
  store ptr %0, ptr %3, align 8, !tbaa !67
  store ptr %1, ptr %4, align 8, !tbaa !31
  %5 = load ptr, ptr %3, align 8
  %6 = load ptr, ptr %4, align 8, !tbaa !31
  call void @_ZN3gmx14OptionTemplateI9XvgFormatNS_10EnumOptionIS1_EEEC2EPKc(ptr noundef nonnull align 8 dereferenceable(88) %5, ptr noundef %6)
  store ptr getelementptr inbounds inrange(-16, 24) ({ [5 x ptr] }, ptr @_ZTVN3gmx10EnumOptionI9XvgFormatEE, i32 0, i32 0, i32 2), ptr %5, align 8, !tbaa !52
  %7 = getelementptr inbounds nuw %"class.gmx::EnumOption", ptr %5, i32 0, i32 1
  store ptr null, ptr %7, align 8, !tbaa !71
  %8 = getelementptr inbounds nuw %"class.gmx::EnumOption", ptr %5, i32 0, i32 2
  store i32 0, ptr %8, align 8, !tbaa !81
  ret void
}

; Function Attrs: mustprogress uwtable
define void @_ZN3gmx24AnalysisDataPlotSettings11initOptionsEPNS_17IOptionsContainerE(ptr noundef nonnull align 8 dereferenceable(16) %0, ptr noundef %1) #1 align 2 personality ptr @__gxx_personality_v0 {
  %3 = alloca ptr, align 8
  %4 = alloca ptr, align 8
  %5 = alloca %"class.gmx::EnumOption", align 8
  %6 = alloca ptr, align 8
  %7 = alloca i32, align 4
  store ptr %0, ptr %3, align 8, !tbaa !60
  store ptr %1, ptr %4, align 8, !tbaa !65
  %8 = load ptr, ptr %3, align 8
  %9 = load ptr, ptr %4, align 8, !tbaa !65
  call void @llvm.lifetime.start.p0(i64 104, ptr %5) #21
  call void @_ZN3gmx10EnumOptionI9XvgFormatEC2EPKc(ptr noundef nonnull align 8 dereferenceable(100) %5, ptr noundef @.str)
  %10 = invoke noundef nonnull align 8 dereferenceable(100) ptr @_ZN3gmx10EnumOptionI9XvgFormatE9enumValueERKNS_16EnumerationArrayIS1_PKcLS1_3EEE(ptr noundef nonnull align 8 dereferenceable(100) %5, ptr noundef nonnull align 8 dereferenceable(24) @_ZN3gmxL16c_xvgFormatNamesE)
          to label %11 unwind label %19

11:                                               ; preds = %2
  %12 = getelementptr inbounds nuw %"class.gmx::AnalysisDataPlotSettings", ptr %8, i32 0, i32 2
  %13 = invoke noundef nonnull align 8 dereferenceable(100) ptr @_ZN3gmx14OptionTemplateI9XvgFormatNS_10EnumOptionIS1_EEE5storeEPS1_(ptr noundef nonnull align 8 dereferenceable(88) %10, ptr noundef %12)
          to label %14 unwind label %19

14:                                               ; preds = %11
  %15 = invoke noundef nonnull align 8 dereferenceable(100) ptr @_ZN3gmx14OptionTemplateI9XvgFormatNS_10EnumOptionIS1_EEE11descriptionEPKc(ptr noundef nonnull align 8 dereferenceable(88) %13, ptr noundef @.str.1)
          to label %16 unwind label %19

16:                                               ; preds = %14
  %17 = invoke noundef ptr @_ZN3gmx17IOptionsContainer9addOptionINS_10EnumOptionI9XvgFormatEEEEPNT_8InfoTypeERKS5_(ptr noundef nonnull align 8 dereferenceable(8) %9, ptr noundef nonnull align 8 dereferenceable(100) %15)
          to label %18 unwind label %19

18:                                               ; preds = %16
  call void @_ZN3gmx14AbstractOptionD2Ev(ptr noundef nonnull align 8 dereferenceable(100) %5) #21
  call void @llvm.lifetime.end.p0(i64 104, ptr %5) #21
  ret void

19:                                               ; preds = %16, %14, %11, %2
  %20 = landingpad { ptr, i32 }
          cleanup
  %21 = extractvalue { ptr, i32 } %20, 0
  store ptr %21, ptr %6, align 8
  %22 = extractvalue { ptr, i32 } %20, 1
  store i32 %22, ptr %7, align 4
  call void @_ZN3gmx14AbstractOptionD2Ev(ptr noundef nonnull align 8 dereferenceable(100) %5) #21
  call void @llvm.lifetime.end.p0(i64 104, ptr %5) #21
  br label %23

23:                                               ; preds = %19
  %24 = load ptr, ptr %6, align 8
  %25 = load i32, ptr %7, align 4
  %26 = insertvalue { ptr, i32 } poison, ptr %24, 0
  %27 = insertvalue { ptr, i32 } %26, i32 %25, 1
  resume { ptr, i32 } %27
}