; Function Attrs: mustprogress uwtable
define void @_ZN3gmx24AnalysisDataPlotSettings11initOptionsEPNS_17IOptionsContainerE(ptr noundef nonnull align 8 dereferenceable(16) %0, ptr noundef %1) local_unnamed_addr #2 align 2 personality ptr @__gxx_personality_v0 {
_ZN3gmx17IOptionsContainer9addOptionINS_10EnumOptionI9XvgFormatEEEEPNT_8InfoTypeERKS5_.exit:
  %2 = alloca %"class.gmx::EnumOption", align 8
  call void @llvm.lifetime.start.p0(i64 104, ptr nonnull %2) #35
  %3 = getelementptr inbounds nuw i8, ptr %2, i64 8
  store i32 1, ptr %3, align 8, !tbaa !66
  %4 = getelementptr inbounds nuw i8, ptr %2, i64 12
  store i32 1, ptr %4, align 4, !tbaa !70
  %5 = getelementptr inbounds nuw i8, ptr %2, i64 16
  store ptr @.str, ptr %5, align 8, !tbaa !71
  %6 = getelementptr inbounds nuw i8, ptr %2, i64 24
  %7 = getelementptr inbounds nuw i8, ptr %2, i64 32
  call void @llvm.memset.p0.i64(ptr noundef nonnull align 8 dereferenceable(56) %7, i8 0, i64 56, i1 false)
  store ptr getelementptr inbounds nuw inrange(-16, 24) (i8, ptr @_ZTVN3gmx10EnumOptionI9XvgFormatEE, i64 16), ptr %2, align 8, !tbaa !47
  %8 = getelementptr inbounds nuw i8, ptr %2, i64 88
  %9 = getelementptr inbounds nuw i8, ptr %2, i64 96
  store ptr @_ZN3gmxL16c_xvgFormatNamesE, ptr %8, align 8, !tbaa !72
  store i32 3, ptr %9, align 8, !tbaa !79
  %10 = getelementptr inbounds nuw i8, ptr %0, i64 12
  %11 = getelementptr inbounds nuw i8, ptr %2, i64 64
  store ptr %10, ptr %11, align 8, !tbaa !80
  store ptr @.str.1, ptr %6, align 8, !tbaa !81
  %12 = load ptr, ptr %1, align 8, !tbaa !47
  %13 = getelementptr inbounds nuw i8, ptr %12, i64 24
  %14 = load ptr, ptr %13, align 8
  %15 = call noundef ptr %14(ptr noundef nonnull align 8 dereferenceable(8) %1, ptr noundef nonnull align 8 dereferenceable(100) %2)
  call void @llvm.lifetime.end.p0(i64 104, ptr nonnull %2) #35
  ret void
}